csympy.matrices.immutable
ImmutableMatrix
p0
(csympy.core.numbers
Integer
p1
(I3
tp2
Rp3
(dp4
bg3
csympy.core.containers
Tuple
p5
(csympy.core.add
Add
p6
(csympy.core.mul
Mul
p7
(csympy.core.numbers
Float
p8
((I0
S'1L'
p9
I0
I1
tp10
tp11
Rp12
(dp13
S'_prec'
p14
I53
sbcsympy.functions.elementary.trigonometric
sin
p15
(csympy.core.symbol
Symbol
p16
(S'r'
p17
tp18
Rp19
(dp20
S'_assumptions'
p21
ccopy_reg
_reconstructor
p22
(csympy.core.assumptions
StdFactKB
p23
c__builtin__
dict
p24
(dp25
S'real'
p26
NsS'irrational'
p27
NsS'antihermitian'
p28
NsS'nonpositive'
p29
NsS'algebraic'
p30
NsS'hermitian'
p31
NsS'infinite'
p32
NsS'integer'
p33
NsS'imaginary'
p34
NsS'odd'
p35
NsS'even'
p36
NsS'commutative'
p37
I01
sS'zero'
p38
NsS'positive'
p39
NsS'negative'
p40
NsS'nonnegative'
p41
NsS'complex'
p42
NsS'rational'
p43
NsS'finite'
p44
Nstp45
Rp46
(dp47
S'_generator'
p48
(dp49
sbsbtp50
Rp51
(dp52
bg15
(g16
(S'y'
p53
tp54
Rp55
(dp56
g21
g22
(g23
g24
(dp57
g26
Nsg27
Nsg28
Nsg29
Nsg30
Nsg38
Nsg32
Nsg33
Nsg31
Nsg35
Nsg34
Nsg36
Nsg37
I01
sg39
Nsg40
Nsg41
Nsg42
Nsg43
Nsg44
Nstp58
Rp59
(dp60
g48
(dp61
sbsbtp62
Rp63
(dp64
btp65
Rp66
(dp67
bg7
(g8
((I1
S'26ef9d0b14ba9L'
p68
I-156
I50
tp69
tp70
Rp71
(dp72
g14
I53
sbcsympy.functions.elementary.trigonometric
cos
p73
(g19
tp74
Rp75
(dp76
bg63
tp77
Rp78
(dp79
bg7
(g8
((I1
S'11a62633145c07L'
p80
I-106
I53
tp81
tp82
Rp83
(dp84
g14
I53
sbg73
(g16
(S'p'
p85
tp86
Rp87
(dp88
g21
g22
(g23
g24
(dp89
g26
Nsg27
Nsg28
Nsg29
Nsg30
Nsg31
Nsg32
Nsg33
Nsg34
Nsg35
Nsg36
Nsg37
I01
sg38
Nsg39
Nsg40
Nsg41
Nsg42
Nsg43
Nsg44
Nstp90
Rp91
(dp92
g48
(dp93
sbsbtp94
Rp95
(dp96
bg73
(g55
tp97
Rp98
(dp99
btp100
Rp101
(dp102
bg7
(g8
((I0
S'1L'
p103
I0
I1
tp104
tp105
Rp106
(dp107
g14
I53
sbg75
g98
g15
(g87
tp108
Rp109
(dp110
btp111
Rp112
(dp113
bg7
(g8
((I0
S'26ef9d0b14ba9L'
p114
I-156
I50
tp115
tp116
Rp117
(dp118
g14
I53
sbg98
g109
g51
tp119
Rp120
(dp121
btp122
Rp123
(dp124
bg6
(g7
(g8
((I0
S'1L'
p125
I0
I1
tp126
tp127
Rp128
(dp129
g14
I53
sbg75
g63
tp130
Rp131
(dp132
bg7
(g8
((I1
S'11a62633145c07L'
p133
I-105
I53
tp134
tp135
Rp136
(dp137
g14
I53
sbg95
g98
tp138
Rp139
(dp140
bg7
(g8
((I1
S'1L'
p141
I0
I1
tp142
tp143
Rp144
(dp145
g14
I53
sbg98
g109
g51
tp146
Rp147
(dp148
btp149
Rp150
(dp151
bg6
(g7
(g8
((I0
S'1L'
p152
I0
I1
tp153
tp154
Rp155
(dp156
g14
I53
sbg95
g98
tp157
Rp158
(dp159
bg7
(g8
((I0
S'11a62633145c07L'
p160
I-106
I53
tp161
tp162
Rp163
(dp164
g14
I53
sbg51
g63
tp165
Rp166
(dp167
bg7
(g8
((I0
S'11a62633145c07L'
p168
I-105
I53
tp169
tp170
Rp171
(dp172
g14
I53
sbg75
g63
tp173
Rp174
(dp175
bg7
(g8
((I0
S'11a62633145c07L'
p176
I-106
I53
tp177
tp178
Rp179
(dp180
g14
I53
sbg75
g98
g109
tp181
Rp182
(dp183
bg7
(g8
((I1
S'11a62633145c07L'
p184
I-105
I53
tp185
tp186
Rp187
(dp188
g14
I53
sbg98
g109
g51
tp189
Rp190
(dp191
btp192
Rp193
(dp194
bg6
(g7
(g8
((I0
S'26ef9d0b14ba9L'
p195
I-156
I50
tp196
tp197
Rp198
(dp199
g14
I53
sbg75
g98
tp200
Rp201
(dp202
bg7
(g8
((I1
S'1L'
p203
I0
I1
tp204
tp205
Rp206
(dp207
g14
I53
sbg98
g51
tp208
Rp209
(dp210
bg7
(g8
((I1
S'11a62633145c07L'
p211
I-106
I53
tp212
tp213
Rp214
(dp215
g14
I53
sbg95
g63
tp216
Rp217
(dp218
bg7
(g8
((I0
S'1L'
p219
I0
I1
tp220
tp221
Rp222
(dp223
g14
I53
sbg75
g109
g63
tp224
Rp225
(dp226
bg7
(g8
((I0
S'26ef9d0b14ba9L'
p227
I-156
I50
tp228
tp229
Rp230
(dp231
g14
I53
sbg109
g51
g63
tp232
Rp233
(dp234
btp235
Rp236
(dp237
bg6
(g7
(g8
((I1
S'1L'
p238
I0
I1
tp239
tp240
Rp241
(dp242
g14
I53
sbg75
g98
tp243
Rp244
(dp245
bg7
(g8
((I1
S'11a62633145c07L'
p246
I-105
I53
tp247
tp248
Rp249
(dp250
g14
I53
sbg95
g63
tp251
Rp252
(dp253
bg7
(g8
((I1
S'1L'
p254
I0
I1
tp255
tp256
Rp257
(dp258
g14
I53
sbg109
g51
g63
tp259
Rp260
(dp261
btp262
Rp263
(dp264
bg6
(g7
(g8
((I0
S'1L'
p265
I0
I1
tp266
tp267
Rp268
(dp269
g14
I53
sbg95
g63
tp270
Rp271
(dp272
bg7
(g8
((I1
S'11a62633145c07L'
p273
I-106
I53
tp274
tp275
Rp276
(dp277
g14
I53
sbg98
g51
tp278
Rp279
(dp280
bg7
(g8
((I1
S'11a62633145c07L'
p281
I-105
I53
tp282
tp283
Rp284
(dp285
g14
I53
sbg75
g98
tp286
Rp287
(dp288
bg7
(g8
((I0
S'11a62633145c07L'
p289
I-106
I53
tp290
tp291
Rp292
(dp293
g14
I53
sbg75
g109
g63
tp294
Rp295
(dp296
bg7
(g8
((I1
S'11a62633145c07L'
p297
I-105
I53
tp298
tp299
Rp300
(dp301
g14
I53
sbg109
g51
g63
tp302
Rp303
(dp304
btp305
Rp306
(dp307
bg6
(g7
(g8
((I0
S'11a62633145c07L'
p308
I-106
I53
tp309
tp310
Rp311
(dp312
g14
I53
sbg109
tp313
Rp314
(dp315
bg7
(g8
((I0
S'1L'
p316
I0
I1
tp317
tp318
Rp319
(dp320
g14
I53
sbg95
g75
tp321
Rp322
(dp323
bg7
(g8
((I0
S'26ef9d0b14ba9L'
p324
I-156
I50
tp325
tp326
Rp327
(dp328
g14
I53
sbg95
g51
tp329
Rp330
(dp331
btp332
Rp333
(dp334
bg6
(g7
(g8
((I0
S'11a62633145c07L'
p335
I-105
I53
tp336
tp337
Rp338
(dp339
g14
I53
sbg109
tp340
Rp341
(dp342
bg7
(g8
((I1
S'1L'
p343
I0
I1
tp344
tp345
Rp346
(dp347
g14
I53
sbg95
g51
tp348
Rp349
(dp350
btp351
Rp352
(dp353
bg6
(g7
(g8
((I1
S'1L'
p354
I0
I1
tp355
tp356
Rp357
(dp358
g14
I53
sbg109
tp359
Rp360
(dp361
bg7
(g8
((I0
S'11a62633145c07L'
p362
I-106
I53
tp363
tp364
Rp365
(dp366
g14
I53
sbg95
g75
tp367
Rp368
(dp369
bg7
(g8
((I1
S'11a62633145c07L'
p370
I-105
I53
tp371
tp372
Rp373
(dp374
g14
I53
sbg95
g51
tp375
Rp376
(dp377
btp378
Rp379
(dp380
btp381
Rp382
(dp383
btp384
Rp385
(dp386
b.